target datalayout = "e-m:e-p270:32:32-p271:32:32-p272:64:64-i64:64-f80:128-n8:16:32:64-S128"
target triple = "x86_64-pc-linux-gnu"

@.str = private unnamed_addr constant [3 x i8] c"%d\00", align 1
@.str.1 = private unnamed_addr constant [5 x i8] c"%d%d\00", align 1
@.str.2 = private unnamed_addr constant [4 x i8] c"%d\0A\00", align 1

; Function Attrs: noinline nounwind uwtable
define dso_local i32 @main() #0 {
  %1 = alloca i32, align 4
  %2 = alloca i32, align 4
  %3 = alloca i32, align 4
  %4 = alloca i32, align 4
  %5 = alloca i32, align 4
  %6 = alloca i32, align 4
  %7 = alloca i32, align 4
  %8 = alloca [100 x [100 x i32]], align 16
  %9 = alloca i32, align 4
  store i32 0, i32* %1, align 4
  %10 = bitcast [100 x [100 x i32]]* %8 to i8*
  call void @llvm.memset.p0i8.i64(i8* align 16 %10, i8 0, i64 40000, i1 false)
  store i32 0, i32* %9, align 4
  %11 = call i32 (i8*, ...) @__isoc99_scanf(i8* getelementptr inbounds ([3 x i8], [3 x i8]* @.str, i64 0, i64 0), i32* %2)
  store i32 0, i32* %3, align 4
  br label %12

12:                                               ; preds = %126, %0
  %13 = load i32, i32* %3, align 4
  %14 = load i32, i32* %2, align 4
  %15 = icmp slt i32 %13, %14
  br i1 %15, label %16, label %129

16:                                               ; preds = %12
  %17 = call i32 (i8*, ...) @__isoc99_scanf(i8* getelementptr inbounds ([5 x i8], [5 x i8]* @.str.1, i64 0, i64 0), i32* %6, i32* %7)
  store i32 0, i32* %4, align 4
  br label %18

18:                                               ; preds = %41, %16
  %19 = load i32, i32* %4, align 4
  %20 = load i32, i32* %6, align 4
  %21 = icmp slt i32 %19, %20
  br i1 %21, label %22, label %44

22:                                               ; preds = %18
  store i32 0, i32* %5, align 4
  br label %23

23:                                               ; preds = %37, %22
  %24 = load i32, i32* %5, align 4
  %25 = load i32, i32* %7, align 4
  %26 = icmp slt i32 %24, %25
  br i1 %26, label %27, label %40

27:                                               ; preds = %23
  %28 = getelementptr inbounds [100 x [100 x i32]], [100 x [100 x i32]]* %8, i64 0, i64 0
  %29 = load i32, i32* %4, align 4
  %30 = sext i32 %29 to i64
  %31 = getelementptr inbounds [100 x i32], [100 x i32]* %28, i64 %30
  %32 = getelementptr inbounds [100 x i32], [100 x i32]* %31, i64 0, i64 0
  %33 = load i32, i32* %5, align 4
  %34 = sext i32 %33 to i64
  %35 = getelementptr inbounds i32, i32* %32, i64 %34
  %36 = call i32 (i8*, ...) @__isoc99_scanf(i8* getelementptr inbounds ([3 x i8], [3 x i8]* @.str, i64 0, i64 0), i32* %35)
  br label %37

37:                                               ; preds = %27
  %38 = load i32, i32* %5, align 4
  %39 = add nsw i32 %38, 1
  store i32 %39, i32* %5, align 4
  br label %23

40:                                               ; preds = %23
  br label %41

41:                                               ; preds = %40
  %42 = load i32, i32* %4, align 4
  %43 = add nsw i32 %42, 1
  store i32 %43, i32* %4, align 4
  br label %18

44:                                               ; preds = %18
  store i32 0, i32* %9, align 4
  %45 = load i32, i32* %6, align 4
  %46 = icmp ne i32 %45, 1
  br i1 %46, label %47, label %76

47:                                               ; preds = %44
  store i32 0, i32* %4, align 4
  br label %48

48:                                               ; preds = %72, %47
  %49 = load i32, i32* %4, align 4
  %50 = load i32, i32* %7, align 4
  %51 = icmp slt i32 %49, %50
  br i1 %51, label %52, label %75

52:                                               ; preds = %48
  %53 = load i32, i32* %9, align 4
  %54 = getelementptr inbounds [100 x [100 x i32]], [100 x [100 x i32]]* %8, i64 0, i64 0
  %55 = getelementptr inbounds [100 x i32], [100 x i32]* %54, i64 0, i64 0
  %56 = load i32, i32* %4, align 4
  %57 = sext i32 %56 to i64
  %58 = getelementptr inbounds i32, i32* %55, i64 %57
  %59 = load i32, i32* %58, align 4
  %60 = add nsw i32 %53, %59
  %61 = getelementptr inbounds [100 x [100 x i32]], [100 x [100 x i32]]* %8, i64 0, i64 0
  %62 = load i32, i32* %6, align 4
  %63 = sext i32 %62 to i64
  %64 = getelementptr inbounds [100 x i32], [100 x i32]* %61, i64 %63
  %65 = getelementptr inbounds [100 x i32], [100 x i32]* %64, i64 -1
  %66 = getelementptr inbounds [100 x i32], [100 x i32]* %65, i64 0, i64 0
  %67 = load i32, i32* %4, align 4
  %68 = sext i32 %67 to i64
  %69 = getelementptr inbounds i32, i32* %66, i64 %68
  %70 = load i32, i32* %69, align 4
  %71 = add nsw i32 %60, %70
  store i32 %71, i32* %9, align 4
  br label %72

72:                                               ; preds = %52
  %73 = load i32, i32* %4, align 4
  %74 = add nsw i32 %73, 1
  store i32 %74, i32* %4, align 4
  br label %48

75:                                               ; preds = %48
  br label %94

76:                                               ; preds = %44
  store i32 0, i32* %4, align 4
  br label %77

77:                                               ; preds = %90, %76
  %78 = load i32, i32* %4, align 4
  %79 = load i32, i32* %7, align 4
  %80 = icmp slt i32 %78, %79
  br i1 %80, label %81, label %93

81:                                               ; preds = %77
  %82 = load i32, i32* %9, align 4
  %83 = getelementptr inbounds [100 x [100 x i32]], [100 x [100 x i32]]* %8, i64 0, i64 0
  %84 = getelementptr inbounds [100 x i32], [100 x i32]* %83, i64 0, i64 0
  %85 = load i32, i32* %4, align 4
  %86 = sext i32 %85 to i64
  %87 = getelementptr inbounds i32, i32* %84, i64 %86
  %88 = load i32, i32* %87, align 4
  %89 = add nsw i32 %82, %88
  store i32 %89, i32* %9, align 4
  br label %90

90:                                               ; preds = %81
  %91 = load i32, i32* %4, align 4
  %92 = add nsw i32 %91, 1
  store i32 %92, i32* %4, align 4
  br label %77

93:                                               ; preds = %77
  br label %94

94:                                               ; preds = %93, %75
  store i32 1, i32* %4, align 4
  br label %95

95:                                               ; preds = %120, %94
  %96 = load i32, i32* %4, align 4
  %97 = load i32, i32* %6, align 4
  %98 = sub nsw i32 %97, 1
  %99 = icmp slt i32 %96, %98
  br i1 %99, label %100, label %123

100:                                              ; preds = %95
  %101 = load i32, i32* %9, align 4
  %102 = getelementptr inbounds [100 x [100 x i32]], [100 x [100 x i32]]* %8, i64 0, i64 0
  %103 = load i32, i32* %4, align 4
  %104 = sext i32 %103 to i64
  %105 = getelementptr inbounds [100 x i32], [100 x i32]* %102, i64 %104
  %106 = getelementptr inbounds [100 x i32], [100 x i32]* %105, i64 0, i64 0
  %107 = load i32, i32* %106, align 4
  %108 = add nsw i32 %101, %107
  %109 = getelementptr inbounds [100 x [100 x i32]], [100 x [100 x i32]]* %8, i64 0, i64 0
  %110 = load i32, i32* %4, align 4
  %111 = sext i32 %110 to i64
  %112 = getelementptr inbounds [100 x i32], [100 x i32]* %109, i64 %111
  %113 = getelementptr inbounds [100 x i32], [100 x i32]* %112, i64 0, i64 0
  %114 = load i32, i32* %7, align 4
  %115 = sext i32 %114 to i64
  %116 = getelementptr inbounds i32, i32* %113, i64 %115
  %117 = getelementptr inbounds i32, i32* %116, i64 -1
  %118 = load i32, i32* %117, align 4
  %119 = add nsw i32 %108, %118
  store i32 %119, i32* %9, align 4
  br label %120

120:                                              ; preds = %100
  %121 = load i32, i32* %4, align 4
  %122 = add nsw i32 %121, 1
  store i32 %122, i32* %4, align 4
  br label %95

123:                                              ; preds = %95
  %124 = load i32, i32* %9, align 4
  %125 = call i32 (i8*, ...) @printf(i8* getelementptr inbounds ([4 x i8], [4 x i8]* @.str.2, i64 0, i64 0), i32 %124)
  br label %126

126:                                              ; preds = %123
  %127 = load i32, i32* %3, align 4
  %128 = add nsw i32 %127, 1
  store i32 %128, i32* %3, align 4
  br label %12

129:                                              ; preds = %12
  ret i32 0
}